target datalayout = "e-m:e-p270:32:32-p271:32:32-p272:64:64-i64:64-i128:128-f80:128-n8:16:32:64-S128"
target triple = "x86_64-pc-linux-gnu"

%struct.AVFilterPad = type { ptr, i32, i32, %union.anon, ptr, ptr, ptr }
%union.anon = type { ptr }
%struct.AVFilterContext = type { ptr, ptr, ptr, ptr, ptr, i32, ptr, ptr, i32, ptr, ptr, i32, i32, ptr, ptr, ptr, ptr, i32, ptr, i32, i32 }
%struct.GuidedContext = type { ptr, %struct.FFFrameSync, i32, float, i32, i32, i32, i32, i32, i32, i32, i32, [4 x i32], [4 x i32], ptr, ptr, ptr, ptr, ptr, ptr, ptr, ptr, ptr, ptr, ptr, ptr, ptr }
%struct.FFFrameSync = type { ptr, ptr, i32, %struct.AVRational, i64, ptr, ptr, i32, i32, i8, i8, ptr, i32, i32, i32, i32 }
%struct.AVRational = type { i32, i32 }

@.str.17 = private unnamed_addr constant [9 x i8] c"guidance\00", align 1
@.str.26 = private unnamed_addr constant [7 x i8] c"source\00", align 1

; Function Attrs: cold nounwind optsize uwtable
define internal i32 @init(ptr noundef %0) #0 {
  %2 = alloca i32, align 4
  %3 = alloca ptr, align 8
  %4 = alloca ptr, align 8
  %5 = alloca %struct.AVFilterPad, align 8
  %6 = alloca i32, align 4
  %7 = alloca i32, align 4
  store ptr %0, ptr %3, align 8, !tbaa !4
  call void @llvm.lifetime.start.p0(i64 8, ptr %4) #10
  %8 = load ptr, ptr %3, align 8, !tbaa !4
  %9 = getelementptr inbounds nuw %struct.AVFilterContext, ptr %8, i32 0, i32 9
  %10 = load ptr, ptr %9, align 8, !tbaa !9
  store ptr %10, ptr %4, align 8, !tbaa !22
  call void @llvm.lifetime.start.p0(i64 48, ptr %5) #10
  call void @llvm.memset.p0.i64(ptr align 8 %5, i8 0, i64 48, i1 false)
  call void @llvm.lifetime.start.p0(i64 4, ptr %6) #10
  %11 = getelementptr inbounds nuw %struct.AVFilterPad, ptr %5, i32 0, i32 1
  store i32 0, ptr %11, align 8, !tbaa !24
  %12 = getelementptr inbounds nuw %struct.AVFilterPad, ptr %5, i32 0, i32 0
  store ptr @.str.26, ptr %12, align 8, !tbaa !26
  %13 = getelementptr inbounds nuw %struct.AVFilterPad, ptr %5, i32 0, i32 6
  store ptr @config_input, ptr %13, align 8, !tbaa !27
  %14 = load ptr, ptr %3, align 8, !tbaa !4
  %15 = call i32 @ff_append_inpad(ptr noundef %14, ptr noundef %5)
  store i32 %15, ptr %6, align 4, !tbaa !28
  %16 = icmp slt i32 %15, 0
  br i1 %16, label %17, label %19

17:                                               ; preds = %1
  %18 = load i32, ptr %6, align 4, !tbaa !28
  store i32 %18, ptr %2, align 4
  store i32 1, ptr %7, align 4
  br label %35

19:                                               ; preds = %1
  %20 = load ptr, ptr %4, align 8, !tbaa !22
  %21 = getelementptr inbounds nuw %struct.GuidedContext, ptr %20, i32 0, i32 6
  %22 = load i32, ptr %21, align 8, !tbaa !29
  %23 = icmp eq i32 %22, 1
  br i1 %23, label %24, label %34

24:                                               ; preds = %19
  %25 = getelementptr inbounds nuw %struct.AVFilterPad, ptr %5, i32 0, i32 1
  store i32 0, ptr %25, align 8, !tbaa !24
  %26 = getelementptr inbounds nuw %struct.AVFilterPad, ptr %5, i32 0, i32 0
  store ptr @.str.17, ptr %26, align 8, !tbaa !26
  %27 = getelementptr inbounds nuw %struct.AVFilterPad, ptr %5, i32 0, i32 6
  store ptr null, ptr %27, align 8, !tbaa !27
  %28 = load ptr, ptr %3, align 8, !tbaa !4
  %29 = call i32 @ff_append_inpad(ptr noundef %28, ptr noundef %5)
  store i32 %29, ptr %6, align 4, !tbaa !28
  %30 = icmp slt i32 %29, 0
  br i1 %30, label %31, label %33

31:                                               ; preds = %24
  %32 = load i32, ptr %6, align 4, !tbaa !28
  store i32 %32, ptr %2, align 4
  store i32 1, ptr %7, align 4
  br label %35

33:                                               ; preds = %24
  br label %34

34:                                               ; preds = %33, %19
  store i32 0, ptr %2, align 4
  store i32 1, ptr %7, align 4
  br label %35

35:                                               ; preds = %34, %31, %17
  call void @llvm.lifetime.end.p0(i64 4, ptr %6) #10
  call void @llvm.lifetime.end.p0(i64 48, ptr %5) #10
  call void @llvm.lifetime.end.p0(i64 8, ptr %4) #10
  %36 = load i32, ptr %2, align 4
  ret i32 %36
}