; Function Attrs: cold nounwind optsize uwtable
define internal range(i32 -2147483648, 1) i32 @init(ptr noundef %0) #0 {
  %2 = alloca %struct.AVFilterPad, align 8
  %3 = getelementptr inbounds nuw i8, ptr %0, i64 72
  %4 = load ptr, ptr %3, align 8, !tbaa !4
  call void @llvm.lifetime.start.p0(i64 48, ptr nonnull %2) #9
  %5 = getelementptr inbounds nuw i8, ptr %2, i64 8
  %6 = getelementptr inbounds nuw i8, ptr %2, i64 8
  call void @llvm.memset.p0.i64(ptr noundef nonnull align 8 dereferenceable(32) %6, i8 0, i64 32, i1 false)
  store ptr @.str.26, ptr %2, align 8, !tbaa !20
  %7 = getelementptr inbounds nuw i8, ptr %2, i64 40
  store ptr @config_input, ptr %7, align 8, !tbaa !22
  %8 = call i32 @ff_append_inpad(ptr noundef %0, ptr noundef nonnull %2) #9
  %9 = icmp slt i32 %8, 0
  br i1 %9, label %18, label %10

10:                                               ; preds = %1
  %11 = getelementptr inbounds nuw i8, ptr %4, i64 120
  %12 = load i32, ptr %11, align 8, !tbaa !23
  %13 = icmp eq i32 %12, 1
  br i1 %13, label %14, label %17

14:                                               ; preds = %10
  store i32 0, ptr %5, align 8, !tbaa !32
  store ptr @.str.17, ptr %2, align 8, !tbaa !20
  store ptr null, ptr %7, align 8, !tbaa !22
  %15 = call i32 @ff_append_inpad(ptr noundef nonnull %0, ptr noundef nonnull %2) #9
  %16 = icmp slt i32 %15, 0
  br i1 %16, label %18, label %17

17:                                               ; preds = %14, %10
  br label %18

18:                                               ; preds = %14, %1, %17
  %.0 = phi i32 [ 0, %17 ], [ %8, %1 ], [ %15, %14 ]
  call void @llvm.lifetime.end.p0(i64 48, ptr nonnull %2) #9
  ret i32 %.0
}